target datalayout = "e-m:e-p270:32:32-p271:32:32-p272:64:64-i64:64-i128:128-f80:128-n8:16:32:64-S128"
target triple = "x86_64-unknown-linux-gnu"

%"class.icu_75::UnicodeString" = type { %"class.icu_75::Replaceable", %"union.icu_75::UnicodeString::StackBufferOrFields" }
%"class.icu_75::Replaceable" = type { %"class.icu_75::UObject" }
%"class.icu_75::UObject" = type { ptr }
%"union.icu_75::UnicodeString::StackBufferOrFields" = type { %struct.anon.0, [32 x i8] }
%struct.anon.0 = type { i16, i32, i32, ptr }
%"class.icu_75::Normalizer2WithImpl" = type { %"class.icu_75::Normalizer2", ptr }
%"class.icu_75::Normalizer2" = type { %"class.icu_75::UObject" }
%"class.icu_75::ReorderingBuffer" = type { ptr, ptr, ptr, ptr, ptr, i32, i8, ptr, ptr }
%"class.icu_75::ConstChar16Ptr" = type { ptr }
%"class.icu_75::Char16Ptr" = type { ptr }

@_ZTIN6icu_7511Normalizer2E = constant { ptr, ptr, ptr } { ptr getelementptr inbounds (ptr, ptr @_ZTVN10__cxxabiv120__si_class_type_infoE, i64 2), ptr @_ZTSN6icu_7511Normalizer2E, ptr @_ZTIN6icu_757UObjectE }, align 8
@_ZTIN6icu_7519Normalizer2WithImplE = constant { ptr, ptr, ptr } { ptr getelementptr inbounds (ptr, ptr @_ZTVN10__cxxabiv120__si_class_type_infoE, i64 2), ptr @_ZTSN6icu_7519Normalizer2WithImplE, ptr @_ZTIN6icu_7511Normalizer2E }, align 8

; Function Attrs: mustprogress nounwind uwtable
define linkonce_odr void @_ZN6icu_759Char16PtrD2Ev(ptr noundef nonnull align 8 dereferenceable(8) %this) unnamed_addr #0 comdat align 2 {
entry:
  %this.addr = alloca ptr, align 8
  store ptr %this, ptr %this.addr, align 8
  %this1 = load ptr, ptr %this.addr, align 8
  %p_ = getelementptr inbounds %"class.icu_75::Char16Ptr", ptr %this1, i32 0, i32 0
  %0 = load ptr, ptr %p_, align 8
  call void asm sideeffect "", "rm,~{memory},~{dirflag},~{fpsr},~{flags}"(ptr %0) #8, !srcloc !5
  ret void
}

; Function Attrs: mustprogress nounwind uwtable
define linkonce_odr void @_ZN6icu_759Char16PtrC2EPDs(ptr noundef nonnull align 8 dereferenceable(8) %this, ptr noundef %p) unnamed_addr #0 comdat align 2 {
entry:
  %this.addr = alloca ptr, align 8
  %p.addr = alloca ptr, align 8
  store ptr %this, ptr %this.addr, align 8
  store ptr %p, ptr %p.addr, align 8
  %this1 = load ptr, ptr %this.addr, align 8
  %p_ = getelementptr inbounds %"class.icu_75::Char16Ptr", ptr %this1, i32 0, i32 0
  %0 = load ptr, ptr %p.addr, align 8
  store ptr %0, ptr %p_, align 8
  ret void
}

; Function Attrs: mustprogress nounwind uwtable
define linkonce_odr void @_ZN6icu_7514ConstChar16PtrD2Ev(ptr noundef nonnull align 8 dereferenceable(8) %this) unnamed_addr #0 comdat align 2 {
entry:
  %this.addr = alloca ptr, align 8
  store ptr %this, ptr %this.addr, align 8
  %this1 = load ptr, ptr %this.addr, align 8
  %p_ = getelementptr inbounds %"class.icu_75::ConstChar16Ptr", ptr %this1, i32 0, i32 0
  %0 = load ptr, ptr %p_, align 8
  call void asm sideeffect "", "rm,~{memory},~{dirflag},~{fpsr},~{flags}"(ptr %0) #8, !srcloc !4
  ret void
}

; Function Attrs: mustprogress nounwind uwtable
define linkonce_odr void @_ZN6icu_7514ConstChar16PtrC2EPKDs(ptr noundef nonnull align 8 dereferenceable(8) %this, ptr noundef %p) unnamed_addr #0 comdat align 2 {
entry:
  %this.addr = alloca ptr, align 8
  %p.addr = alloca ptr, align 8
  store ptr %this, ptr %this.addr, align 8
  store ptr %p, ptr %p.addr, align 8
  %this1 = load ptr, ptr %this.addr, align 8
  %p_ = getelementptr inbounds %"class.icu_75::ConstChar16Ptr", ptr %this1, i32 0, i32 0
  %0 = load ptr, ptr %p.addr, align 8
  store ptr %0, ptr %p_, align 8
  ret void
}

; Function Attrs: mustprogress nounwind uwtable
define linkonce_odr void @_ZN6icu_7516ReorderingBufferC2ERKNS_15Normalizer2ImplERNS_13UnicodeStringE(ptr noundef nonnull align 8 dereferenceable(64) %this, ptr noundef nonnull align 8 dereferenceable(80) %ni, ptr noundef nonnull align 8 dereferenceable(64) %dest) unnamed_addr #0 comdat align 2 {
entry:
  %this.addr = alloca ptr, align 8
  %ni.addr = alloca ptr, align 8
  %dest.addr = alloca ptr, align 8
  store ptr %this, ptr %this.addr, align 8
  store ptr %ni, ptr %ni.addr, align 8
  store ptr %dest, ptr %dest.addr, align 8
  %this1 = load ptr, ptr %this.addr, align 8
  %impl = getelementptr inbounds %"class.icu_75::ReorderingBuffer", ptr %this1, i32 0, i32 0
  %0 = load ptr, ptr %ni.addr, align 8
  store ptr %0, ptr %impl, align 8
  %str = getelementptr inbounds %"class.icu_75::ReorderingBuffer", ptr %this1, i32 0, i32 1
  %1 = load ptr, ptr %dest.addr, align 8
  store ptr %1, ptr %str, align 8
  %start = getelementptr inbounds %"class.icu_75::ReorderingBuffer", ptr %this1, i32 0, i32 2
  store ptr null, ptr %start, align 8
  %reorderStart = getelementptr inbounds %"class.icu_75::ReorderingBuffer", ptr %this1, i32 0, i32 3
  store ptr null, ptr %reorderStart, align 8
  %limit = getelementptr inbounds %"class.icu_75::ReorderingBuffer", ptr %this1, i32 0, i32 4
  store ptr null, ptr %limit, align 8
  %remainingCapacity = getelementptr inbounds %"class.icu_75::ReorderingBuffer", ptr %this1, i32 0, i32 5
  store i32 0, ptr %remainingCapacity, align 8
  %lastCC = getelementptr inbounds %"class.icu_75::ReorderingBuffer", ptr %this1, i32 0, i32 6
  store i8 0, ptr %lastCC, align 4
  ret void
}

; Function Attrs: mustprogress nounwind uwtable
define internal noundef signext i8 @_ZL9U_FAILURE10UErrorCode(i32 noundef %code) #0 {
entry:
  %code.addr = alloca i32, align 4
  store i32 %code, ptr %code.addr, align 4
  %0 = load i32, ptr %code.addr, align 4
  %cmp = icmp sgt i32 %0, 0
  %conv = zext i1 %cmp to i8
  ret i8 %conv
}

; Function Attrs: mustprogress uwtable
define i32 @unorm2_normalize_75(ptr noundef %norm2, ptr noundef %src, i32 noundef %length, ptr noundef %dest, i32 noundef %capacity, ptr noundef %pErrorCode) #3 personality ptr @__gxx_personality_v0 {
entry:
  %retval = alloca i32, align 4
  %norm2.addr = alloca ptr, align 8
  %src.addr = alloca ptr, align 8
  %length.addr = alloca i32, align 4
  %dest.addr = alloca ptr, align 8
  %capacity.addr = alloca i32, align 4
  %pErrorCode.addr = alloca ptr, align 8
  %destString = alloca %"class.icu_75::UnicodeString", align 8
  %n2 = alloca ptr, align 8
  %n2wi = alloca ptr, align 8
  %buffer = alloca %"class.icu_75::ReorderingBuffer", align 8
  %exn.slot = alloca ptr, align 8
  %ehselector.slot = alloca i32, align 4
  %srcString = alloca %"class.icu_75::UnicodeString", align 8
  %agg.tmp = alloca %"class.icu_75::ConstChar16Ptr", align 8
  %agg.tmp38 = alloca %"class.icu_75::Char16Ptr", align 8
  store ptr %norm2, ptr %norm2.addr, align 8
  store ptr %src, ptr %src.addr, align 8
  store i32 %length, ptr %length.addr, align 4
  store ptr %dest, ptr %dest.addr, align 8
  store i32 %capacity, ptr %capacity.addr, align 4
  store ptr %pErrorCode, ptr %pErrorCode.addr, align 8
  %0 = load ptr, ptr %pErrorCode.addr, align 8
  %1 = load i32, ptr %0, align 4
  %call = call noundef signext i8 @_ZL9U_FAILURE10UErrorCode(i32 noundef %1)
  %tobool = icmp ne i8 %call, 0
  br i1 %tobool, label %if.then, label %if.end

if.then:                                          ; preds = %entry
  store i32 0, ptr %retval, align 4
  br label %return

if.end:                                           ; preds = %entry
  %2 = load ptr, ptr %src.addr, align 8
  %cmp = icmp eq ptr %2, null
  br i1 %cmp, label %cond.true, label %cond.false

cond.true:                                        ; preds = %if.end
  %3 = load i32, ptr %length.addr, align 4
  %cmp1 = icmp ne i32 %3, 0
  br i1 %cmp1, label %if.then11, label %lor.lhs.false

cond.false:                                       ; preds = %if.end
  %4 = load i32, ptr %length.addr, align 4
  %cmp2 = icmp slt i32 %4, -1
  br i1 %cmp2, label %if.then11, label %lor.lhs.false

lor.lhs.false:                                    ; preds = %cond.false, %cond.true
  %5 = load ptr, ptr %dest.addr, align 8
  %cmp3 = icmp eq ptr %5, null
  br i1 %cmp3, label %cond.true4, label %cond.false6

cond.true4:                                       ; preds = %lor.lhs.false
  %6 = load i32, ptr %capacity.addr, align 4
  %cmp5 = icmp ne i32 %6, 0
  br i1 %cmp5, label %if.then11, label %lor.lhs.false8

cond.false6:                                      ; preds = %lor.lhs.false
  %7 = load i32, ptr %capacity.addr, align 4
  %cmp7 = icmp slt i32 %7, 0
  br i1 %cmp7, label %if.then11, label %lor.lhs.false8

lor.lhs.false8:                                   ; preds = %cond.false6, %cond.true4
  %8 = load ptr, ptr %src.addr, align 8
  %9 = load ptr, ptr %dest.addr, align 8
  %cmp9 = icmp eq ptr %8, %9
  br i1 %cmp9, label %land.lhs.true, label %if.end12

land.lhs.true:                                    ; preds = %lor.lhs.false8
  %10 = load ptr, ptr %src.addr, align 8
  %cmp10 = icmp ne ptr %10, null
  br i1 %cmp10, label %if.then11, label %if.end12

if.then11:                                        ; preds = %land.lhs.true, %cond.false6, %cond.true4, %cond.false, %cond.true
  %11 = load ptr, ptr %pErrorCode.addr, align 8
  store i32 1, ptr %11, align 4
  store i32 0, ptr %retval, align 4
  br label %return

if.end12:                                         ; preds = %land.lhs.true, %lor.lhs.false8
  %12 = load ptr, ptr %dest.addr, align 8
  %13 = load i32, ptr %capacity.addr, align 4
  call void @_ZN6icu_7513UnicodeStringC1EPDsii(ptr noundef nonnull align 8 dereferenceable(64) %destString, ptr noundef %12, i32 noundef 0, i32 noundef %13)
  %14 = load i32, ptr %length.addr, align 4
  %cmp13 = icmp ne i32 %14, 0
  br i1 %cmp13, label %if.then14, label %if.end37

if.then14:                                        ; preds = %if.end12
  %15 = load ptr, ptr %norm2.addr, align 8
  store ptr %15, ptr %n2, align 8
  %16 = load ptr, ptr %n2, align 8
  %17 = icmp eq ptr %16, null
  br i1 %17, label %dynamic_cast.null, label %dynamic_cast.notnull

dynamic_cast.notnull:                             ; preds = %if.then14
  %18 = call ptr @__dynamic_cast(ptr %16, ptr @_ZTIN6icu_7511Normalizer2E, ptr @_ZTIN6icu_7519Normalizer2WithImplE, i64 0) #8
  br label %dynamic_cast.end

dynamic_cast.null:                                ; preds = %if.then14
  br label %dynamic_cast.end

dynamic_cast.end:                                 ; preds = %dynamic_cast.null, %dynamic_cast.notnull
  %19 = phi ptr [ %18, %dynamic_cast.notnull ], [ null, %dynamic_cast.null ]
  store ptr %19, ptr %n2wi, align 8
  %20 = load ptr, ptr %n2wi, align 8
  %cmp15 = icmp ne ptr %20, null
  br i1 %cmp15, label %if.then16, label %if.else

if.then16:                                        ; preds = %dynamic_cast.end
  %21 = load ptr, ptr %n2wi, align 8
  %impl = getelementptr inbounds %"class.icu_75::Normalizer2WithImpl", ptr %21, i32 0, i32 1
  %22 = load ptr, ptr %impl, align 8
  invoke void @_ZN6icu_7516ReorderingBufferC2ERKNS_15Normalizer2ImplERNS_13UnicodeStringE(ptr noundef nonnull align 8 dereferenceable(64) %buffer, ptr noundef nonnull align 8 dereferenceable(80) %22, ptr noundef nonnull align 8 dereferenceable(64) %destString)
          to label %invoke.cont unwind label %lpad

invoke.cont:                                      ; preds = %if.then16
  %23 = load i32, ptr %length.addr, align 4
  %24 = load ptr, ptr %pErrorCode.addr, align 8
  %call19 = invoke noundef signext i8 @_ZN6icu_7516ReorderingBuffer4initEiR10UErrorCode(ptr noundef nonnull align 8 dereferenceable(64) %buffer, i32 noundef %23, ptr noundef nonnull align 4 dereferenceable(4) %24)
          to label %invoke.cont18 unwind label %lpad17

invoke.cont18:                                    ; preds = %invoke.cont
  %tobool20 = icmp ne i8 %call19, 0
  br i1 %tobool20, label %if.then21, label %if.end26

if.then21:                                        ; preds = %invoke.cont18
  %25 = load ptr, ptr %n2wi, align 8
  %26 = load ptr, ptr %src.addr, align 8
  %27 = load i32, ptr %length.addr, align 4
  %cmp22 = icmp sge i32 %27, 0
  br i1 %cmp22, label %cond.true23, label %cond.false24

cond.true23:                                      ; preds = %if.then21
  %28 = load ptr, ptr %src.addr, align 8
  %29 = load i32, ptr %length.addr, align 4
  %idx.ext = sext i32 %29 to i64
  %add.ptr = getelementptr inbounds i16, ptr %28, i64 %idx.ext
  br label %cond.end

cond.false24:                                     ; preds = %if.then21
  br label %cond.end

cond.end:                                         ; preds = %cond.false24, %cond.true23
  %cond = phi ptr [ %add.ptr, %cond.true23 ], [ null, %cond.false24 ]
  %30 = load ptr, ptr %pErrorCode.addr, align 8
  %vtable = load ptr, ptr %25, align 8
  %vfn = getelementptr inbounds ptr, ptr %vtable, i64 18
  %31 = load ptr, ptr %vfn, align 8
  invoke void %31(ptr noundef nonnull align 8 dereferenceable(16) %25, ptr noundef %26, ptr noundef %cond, ptr noundef nonnull align 8 dereferenceable(64) %buffer, ptr noundef nonnull align 4 dereferenceable(4) %30)
          to label %invoke.cont25 unwind label %lpad17

invoke.cont25:                                    ; preds = %cond.end
  br label %if.end26

lpad:                                             ; preds = %if.end37, %if.else, %if.then16
  %32 = landingpad { ptr, i32 }
          cleanup
  %33 = extractvalue { ptr, i32 } %32, 0
  store ptr %33, ptr %exn.slot, align 8
  %34 = extractvalue { ptr, i32 } %32, 1
  store i32 %34, ptr %ehselector.slot, align 4
  br label %ehcleanup

lpad17:                                           ; preds = %cond.end, %invoke.cont
  %35 = landingpad { ptr, i32 }
          cleanup
  %36 = extractvalue { ptr, i32 } %35, 0
  store ptr %36, ptr %exn.slot, align 8
  %37 = extractvalue { ptr, i32 } %35, 1
  store i32 %37, ptr %ehselector.slot, align 4
  call void @_ZN6icu_7516ReorderingBufferD2Ev(ptr noundef nonnull align 8 dereferenceable(64) %buffer) #8
  br label %ehcleanup

if.end26:                                         ; preds = %invoke.cont25, %invoke.cont18
  call void @_ZN6icu_7516ReorderingBufferD2Ev(ptr noundef nonnull align 8 dereferenceable(64) %buffer) #8
  br label %if.end36

if.else:                                          ; preds = %dynamic_cast.end
  %38 = load i32, ptr %length.addr, align 4
  %cmp27 = icmp slt i32 %38, 0
  %conv = zext i1 %cmp27 to i8
  %39 = load ptr, ptr %src.addr, align 8
  invoke void @_ZN6icu_7514ConstChar16PtrC2EPKDs(ptr noundef nonnull align 8 dereferenceable(8) %agg.tmp, ptr noundef %39)
          to label %invoke.cont28 unwind label %lpad

invoke.cont28:                                    ; preds = %if.else
  %40 = load i32, ptr %length.addr, align 4
  invoke void @_ZN6icu_7513UnicodeStringC1EaNS_14ConstChar16PtrEi(ptr noundef nonnull align 8 dereferenceable(64) %srcString, i8 noundef signext %conv, ptr noundef %agg.tmp, i32 noundef %40)
          to label %invoke.cont30 unwind label %lpad29

invoke.cont30:                                    ; preds = %invoke.cont28
  call void @_ZN6icu_7514ConstChar16PtrD2Ev(ptr noundef nonnull align 8 dereferenceable(8) %agg.tmp) #8
  %41 = load ptr, ptr %n2, align 8
  %42 = load ptr, ptr %pErrorCode.addr, align 8
  %vtable31 = load ptr, ptr %41, align 8
  %vfn32 = getelementptr inbounds ptr, ptr %vtable31, i64 3
  %43 = load ptr, ptr %vfn32, align 8
  %call35 = invoke noundef nonnull align 8 dereferenceable(64) ptr %43(ptr noundef nonnull align 8 dereferenceable(8) %41, ptr noundef nonnull align 8 dereferenceable(64) %srcString, ptr noundef nonnull align 8 dereferenceable(64) %destString, ptr noundef nonnull align 4 dereferenceable(4) %42)
          to label %invoke.cont34 unwind label %lpad33

invoke.cont34:                                    ; preds = %invoke.cont30
  call void @_ZN6icu_7513UnicodeStringD1Ev(ptr noundef nonnull align 8 dereferenceable(64) %srcString) #8
  br label %if.end36

lpad29:                                           ; preds = %invoke.cont28
  %44 = landingpad { ptr, i32 }
          cleanup
  %45 = extractvalue { ptr, i32 } %44, 0
  store ptr %45, ptr %exn.slot, align 8
  %46 = extractvalue { ptr, i32 } %44, 1
  store i32 %46, ptr %ehselector.slot, align 4
  call void @_ZN6icu_7514ConstChar16PtrD2Ev(ptr noundef nonnull align 8 dereferenceable(8) %agg.tmp) #8
  br label %ehcleanup

lpad33:                                           ; preds = %invoke.cont30
  %47 = landingpad { ptr, i32 }
          cleanup
  %48 = extractvalue { ptr, i32 } %47, 0
  store ptr %48, ptr %exn.slot, align 8
  %49 = extractvalue { ptr, i32 } %47, 1
  store i32 %49, ptr %ehselector.slot, align 4
  call void @_ZN6icu_7513UnicodeStringD1Ev(ptr noundef nonnull align 8 dereferenceable(64) %srcString) #8
  br label %ehcleanup

if.end36:                                         ; preds = %invoke.cont34, %if.end26
  br label %if.end37

if.end37:                                         ; preds = %if.end36, %if.end12
  %50 = load ptr, ptr %dest.addr, align 8
  invoke void @_ZN6icu_759Char16PtrC2EPDs(ptr noundef nonnull align 8 dereferenceable(8) %agg.tmp38, ptr noundef %50)
          to label %invoke.cont39 unwind label %lpad

invoke.cont39:                                    ; preds = %if.end37
  %51 = load i32, ptr %capacity.addr, align 4
  %52 = load ptr, ptr %pErrorCode.addr, align 8
  %call42 = invoke noundef i32 @_ZNK6icu_7513UnicodeString7extractENS_9Char16PtrEiR10UErrorCode(ptr noundef nonnull align 8 dereferenceable(64) %destString, ptr noundef %agg.tmp38, i32 noundef %51, ptr noundef nonnull align 4 dereferenceable(4) %52)
          to label %invoke.cont41 unwind label %lpad40

invoke.cont41:                                    ; preds = %invoke.cont39
  store i32 %call42, ptr %retval, align 4
  call void @_ZN6icu_759Char16PtrD2Ev(ptr noundef nonnull align 8 dereferenceable(8) %agg.tmp38) #8
  call void @_ZN6icu_7513UnicodeStringD1Ev(ptr noundef nonnull align 8 dereferenceable(64) %destString) #8
  br label %return

lpad40:                                           ; preds = %invoke.cont39
  %53 = landingpad { ptr, i32 }
          cleanup
  %54 = extractvalue { ptr, i32 } %53, 0
  store ptr %54, ptr %exn.slot, align 8
  %55 = extractvalue { ptr, i32 } %53, 1
  store i32 %55, ptr %ehselector.slot, align 4
  call void @_ZN6icu_759Char16PtrD2Ev(ptr noundef nonnull align 8 dereferenceable(8) %agg.tmp38) #8
  br label %ehcleanup

ehcleanup:                                        ; preds = %lpad40, %lpad33, %lpad29, %lpad17, %lpad
  call void @_ZN6icu_7513UnicodeStringD1Ev(ptr noundef nonnull align 8 dereferenceable(64) %destString) #8
  br label %eh.resume

return:                                           ; preds = %invoke.cont41, %if.then11, %if.then
  %56 = load i32, ptr %retval, align 4
  ret i32 %56

eh.resume:                                        ; preds = %ehcleanup
  %exn = load ptr, ptr %exn.slot, align 8
  %sel = load i32, ptr %ehselector.slot, align 4
  %lpad.val = insertvalue { ptr, i32 } poison, ptr %exn, 0
  %lpad.val43 = insertvalue { ptr, i32 } %lpad.val, i32 %sel, 1
  resume { ptr, i32 } %lpad.val43
}