; Function Attrs: mustprogress uwtable
define noundef i32 @unorm2_normalize_75(ptr noundef %norm2, ptr noundef %src, i32 noundef %length, ptr noundef %dest, i32 noundef %capacity, ptr noundef %pErrorCode) local_unnamed_addr #4 personality ptr @__gxx_personality_v0 {
entry:
  %destString = alloca %"class.icu_75::UnicodeString", align 8
  %buffer = alloca %"class.icu_75::ReorderingBuffer", align 8
  %srcString = alloca %"class.icu_75::UnicodeString", align 8
  %agg.tmp = alloca %"class.icu_75::ConstChar16Ptr", align 8
  %agg.tmp38 = alloca %"class.icu_75::Char16Ptr", align 8
  %0 = load i32, ptr %pErrorCode, align 4
  %cmp.i = icmp slt i32 %0, 1
  br i1 %cmp.i, label %if.end, label %return

if.end:                                           ; preds = %entry
  %cmp = icmp eq ptr %src, null
  br i1 %cmp, label %cond.true, label %cond.false

cond.true:                                        ; preds = %if.end
  %cmp1.not = icmp eq i32 %length, 0
  br i1 %cmp1.not, label %lor.lhs.false, label %if.then11

cond.false:                                       ; preds = %if.end
  %cmp2 = icmp slt i32 %length, -1
  br i1 %cmp2, label %if.then11, label %lor.lhs.false

lor.lhs.false:                                    ; preds = %cond.false, %cond.true
  %cmp3 = icmp eq ptr %dest, null
  br i1 %cmp3, label %cond.true4, label %cond.false6

cond.true4:                                       ; preds = %lor.lhs.false
  %cmp5.not = icmp eq i32 %capacity, 0
  br i1 %cmp5.not, label %lor.lhs.false8, label %if.then11

cond.false6:                                      ; preds = %lor.lhs.false
  %cmp7 = icmp slt i32 %capacity, 0
  br i1 %cmp7, label %if.then11, label %lor.lhs.false8

lor.lhs.false8:                                   ; preds = %cond.false6, %cond.true4
  %cmp9 = icmp eq ptr %src, %dest
  %cmp10 = icmp ne ptr %src, null
  %or.cond = and i1 %cmp10, %cmp9
  br i1 %or.cond, label %if.then11, label %if.end12

if.then11:                                        ; preds = %lor.lhs.false8, %cond.false6, %cond.true4, %cond.false, %cond.true
  store i32 1, ptr %pErrorCode, align 4
  br label %return

if.end12:                                         ; preds = %lor.lhs.false8
  call void @_ZN6icu_7513UnicodeStringC1EPDsii(ptr noundef nonnull align 8 dereferenceable(64) %destString, ptr noundef %dest, i32 noundef 0, i32 noundef %capacity)
  %cmp13.not = icmp eq i32 %length, 0
  br i1 %cmp13.not, label %if.end37, label %if.then14

if.then14:                                        ; preds = %if.end12
  %1 = icmp eq ptr %norm2, null
  br i1 %1, label %if.else, label %dynamic_cast.end

dynamic_cast.end:                                 ; preds = %if.then14
  %2 = call ptr @__dynamic_cast(ptr nonnull %norm2, ptr nonnull @_ZTIN6icu_7511Normalizer2E, ptr nonnull @_ZTIN6icu_7519Normalizer2WithImplE, i64 0) #13
  %cmp15.not = icmp eq ptr %2, null
  br i1 %cmp15.not, label %if.else, label %if.then16

if.then16:                                        ; preds = %dynamic_cast.end
  %impl = getelementptr inbounds i8, ptr %2, i64 8
  %3 = load ptr, ptr %impl, align 8
  store ptr %3, ptr %buffer, align 8
  %str.i = getelementptr inbounds i8, ptr %buffer, i64 8
  store ptr %destString, ptr %str.i, align 8
  %start.i = getelementptr inbounds i8, ptr %buffer, i64 16
  call void @llvm.memset.p0.i64(ptr noundef nonnull align 8 dereferenceable(29) %start.i, i8 0, i64 29, i1 false)
  %call19 = invoke noundef signext i8 @_ZN6icu_7516ReorderingBuffer4initEiR10UErrorCode(ptr noundef nonnull align 8 dereferenceable(64) %buffer, i32 noundef %length, ptr noundef nonnull align 4 dereferenceable(4) %pErrorCode)
          to label %invoke.cont18 unwind label %lpad17

invoke.cont18:                                    ; preds = %if.then16
  %tobool20.not = icmp eq i8 %call19, 0
  br i1 %tobool20.not, label %if.end26, label %if.then21

if.then21:                                        ; preds = %invoke.cont18
  %cmp22 = icmp sgt i32 %length, -1
  %idx.ext = zext nneg i32 %length to i64
  %add.ptr = getelementptr inbounds i16, ptr %src, i64 %idx.ext
  %cond = select i1 %cmp22, ptr %add.ptr, ptr null
  %vtable = load ptr, ptr %2, align 8
  %vfn = getelementptr inbounds i8, ptr %vtable, i64 144
  %4 = load ptr, ptr %vfn, align 8
  invoke void %4(ptr noundef nonnull align 8 dereferenceable(16) %2, ptr noundef %src, ptr noundef %cond, ptr noundef nonnull align 8 dereferenceable(64) %buffer, ptr noundef nonnull align 4 dereferenceable(4) %pErrorCode)
          to label %if.end26 unwind label %lpad17

lpad17:                                           ; preds = %if.then21, %if.then16
  %5 = landingpad { ptr, i32 }
          cleanup
  call void @_ZN6icu_7516ReorderingBufferD2Ev(ptr noundef nonnull align 8 dereferenceable(64) %buffer) #13
  br label %ehcleanup

if.end26:                                         ; preds = %if.then21, %invoke.cont18
  call void @_ZN6icu_7516ReorderingBufferD2Ev(ptr noundef nonnull align 8 dereferenceable(64) %buffer) #13
  br label %if.end37

if.else:                                          ; preds = %if.then14, %dynamic_cast.end
  %length.lobit = lshr i32 %length, 31
  %conv = trunc i32 %length.lobit to i8
  store ptr %src, ptr %agg.tmp, align 8
  invoke void @_ZN6icu_7513UnicodeStringC1EaNS_14ConstChar16PtrEi(ptr noundef nonnull align 8 dereferenceable(64) %srcString, i8 noundef signext %conv, ptr noundef nonnull %agg.tmp, i32 noundef %length)
          to label %invoke.cont30 unwind label %lpad29

invoke.cont30:                                    ; preds = %if.else
  %6 = load ptr, ptr %agg.tmp, align 8
  call void asm sideeffect "", "rm,~{memory},~{dirflag},~{fpsr},~{flags}"(ptr %6) #13, !srcloc !7
  %vtable31 = load ptr, ptr %norm2, align 8
  %vfn32 = getelementptr inbounds i8, ptr %vtable31, i64 24
  %7 = load ptr, ptr %vfn32, align 8
  %call35 = invoke noundef nonnull align 8 dereferenceable(64) ptr %7(ptr noundef nonnull align 8 dereferenceable(8) %norm2, ptr noundef nonnull align 8 dereferenceable(64) %srcString, ptr noundef nonnull align 8 dereferenceable(64) %destString, ptr noundef nonnull align 4 dereferenceable(4) %pErrorCode)
          to label %invoke.cont34 unwind label %lpad33

invoke.cont34:                                    ; preds = %invoke.cont30
  call void @_ZN6icu_7513UnicodeStringD1Ev(ptr noundef nonnull align 8 dereferenceable(64) %srcString) #13
  br label %if.end37

lpad29:                                           ; preds = %if.else
  %8 = landingpad { ptr, i32 }
          cleanup
  %9 = load ptr, ptr %agg.tmp, align 8
  call void asm sideeffect "", "rm,~{memory},~{dirflag},~{fpsr},~{flags}"(ptr %9) #13, !srcloc !7
  br label %ehcleanup

lpad33:                                           ; preds = %invoke.cont30
  %10 = landingpad { ptr, i32 }
          cleanup
  call void @_ZN6icu_7513UnicodeStringD1Ev(ptr noundef nonnull align 8 dereferenceable(64) %srcString) #13
  br label %ehcleanup

if.end37:                                         ; preds = %if.end26, %invoke.cont34, %if.end12
  store ptr %dest, ptr %agg.tmp38, align 8
  %call42 = invoke noundef i32 @_ZNK6icu_7513UnicodeString7extractENS_9Char16PtrEiR10UErrorCode(ptr noundef nonnull align 8 dereferenceable(64) %destString, ptr noundef nonnull %agg.tmp38, i32 noundef %capacity, ptr noundef nonnull align 4 dereferenceable(4) %pErrorCode)
          to label %invoke.cont41 unwind label %lpad40

invoke.cont41:                                    ; preds = %if.end37
  %11 = load ptr, ptr %agg.tmp38, align 8
  call void asm sideeffect "", "rm,~{memory},~{dirflag},~{fpsr},~{flags}"(ptr %11) #13, !srcloc !8
  call void @_ZN6icu_7513UnicodeStringD1Ev(ptr noundef nonnull align 8 dereferenceable(64) %destString) #13
  br label %return

lpad40:                                           ; preds = %if.end37
  %12 = landingpad { ptr, i32 }
          cleanup
  %13 = load ptr, ptr %agg.tmp38, align 8
  call void asm sideeffect "", "rm,~{memory},~{dirflag},~{fpsr},~{flags}"(ptr %13) #13, !srcloc !8
  br label %ehcleanup

ehcleanup:                                        ; preds = %lpad40, %lpad33, %lpad29, %lpad17
  %.pn = phi { ptr, i32 } [ %12, %lpad40 ], [ %5, %lpad17 ], [ %10, %lpad33 ], [ %8, %lpad29 ]
  call void @_ZN6icu_7513UnicodeStringD1Ev(ptr noundef nonnull align 8 dereferenceable(64) %destString) #13
  resume { ptr, i32 } %.pn

return:                                           ; preds = %entry, %invoke.cont41, %if.then11
  %retval.0 = phi i32 [ 0, %if.then11 ], [ %call42, %invoke.cont41 ], [ 0, %entry ]
  ret i32 %retval.0
}